#include <math.h>
#include <stdio.h>
#include <stdlib.h>
#include <string.h>


int main(int argc, char* argv[])
{
	int sz[100][100],i,j,a=-1,b=-1,c,d,n;
	scanf("%d",&n);
	for(i=0;i<n;i++)
	{
		for(j=0;j<n;j++)
		{
			scanf("%d",&sz[i][j]);
		}
	}
	for(i=0;i<n;i++)
	{
		for(j=0;j<n;j++)
		{
			if(sz[i][j]==0)
			{
				a=i;
				b=j;
				break;
			}
		}
		if(a>=0&&b>=0)
			break;
	}
	for(i=0;i<n;i++)
	{
		for(j=0;j<n;j++)
		{
			if(sz[i][j]==0)
			{
				c=i;
				d=j;
			}
		}
	}
	n=(c-a-1)*(d-b-1);
	printf("%d\n",n);
	return 0;
}