; ModuleID = '15/1923.c'
source_filename = "15/1923.c"
target datalayout = "e-m:e-p270:32:32-p271:32:32-p272:64:64-i64:64-f80:128-n8:16:32:64-S128"
target triple = "x86_64-pc-linux-gnu"

@.str = private unnamed_addr constant [3 x i8] c"%d\00", align 1
@.str.1 = private unnamed_addr constant [4 x i8] c"%d\0A\00", align 1

; Function Attrs: noinline nounwind uwtable
define dso_local i32 @main(i32 %0, i8** %1) #0 {
  %3 = alloca i32, align 4
  %4 = alloca i32, align 4
  %5 = alloca i8**, align 8
  %6 = alloca [100 x [100 x i32]], align 16
  %7 = alloca i32, align 4
  %8 = alloca i32, align 4
  %9 = alloca i32, align 4
  %10 = alloca i32, align 4
  %11 = alloca i32, align 4
  %12 = alloca i32, align 4
  %13 = alloca i32, align 4
  store i32 0, i32* %3, align 4
  store i32 %0, i32* %4, align 4
  store i8** %1, i8*** %5, align 8
  store i32 -1, i32* %9, align 4
  store i32 -1, i32* %10, align 4
  %14 = call i32 (i8*, ...) @__isoc99_scanf(i8* getelementptr inbounds ([3 x i8], [3 x i8]* @.str, i64 0, i64 0), i32* %13)
  store i32 0, i32* %7, align 4
  br label %15

15:                                               ; preds = %36, %2
  %16 = load i32, i32* %7, align 4
  %17 = load i32, i32* %13, align 4
  %18 = icmp slt i32 %16, %17
  br i1 %18, label %19, label %39

19:                                               ; preds = %15
  store i32 0, i32* %8, align 4
  br label %20

20:                                               ; preds = %32, %19
  %21 = load i32, i32* %8, align 4
  %22 = load i32, i32* %13, align 4
  %23 = icmp slt i32 %21, %22
  br i1 %23, label %24, label %35

24:                                               ; preds = %20
  %25 = load i32, i32* %7, align 4
  %26 = sext i32 %25 to i64
  %27 = getelementptr inbounds [100 x [100 x i32]], [100 x [100 x i32]]* %6, i64 0, i64 %26
  %28 = load i32, i32* %8, align 4
  %29 = sext i32 %28 to i64
  %30 = getelementptr inbounds [100 x i32], [100 x i32]* %27, i64 0, i64 %29
  %31 = call i32 (i8*, ...) @__isoc99_scanf(i8* getelementptr inbounds ([3 x i8], [3 x i8]* @.str, i64 0, i64 0), i32* %30)
  br label %32

32:                                               ; preds = %24
  %33 = load i32, i32* %8, align 4
  %34 = add nsw i32 %33, 1
  store i32 %34, i32* %8, align 4
  br label %20

35:                                               ; preds = %20
  br label %36

36:                                               ; preds = %35
  %37 = load i32, i32* %7, align 4
  %38 = add nsw i32 %37, 1
  store i32 %38, i32* %7, align 4
  br label %15

39:                                               ; preds = %15
  store i32 0, i32* %7, align 4
  br label %40

40:                                               ; preds = %73, %39
  %41 = load i32, i32* %7, align 4
  %42 = load i32, i32* %13, align 4
  %43 = icmp slt i32 %41, %42
  br i1 %43, label %44, label %76

44:                                               ; preds = %40
  store i32 0, i32* %8, align 4
  br label %45

45:                                               ; preds = %62, %44
  %46 = load i32, i32* %8, align 4
  %47 = load i32, i32* %13, align 4
  %48 = icmp slt i32 %46, %47
  br i1 %48, label %49, label %65

49:                                               ; preds = %45
  %50 = load i32, i32* %7, align 4
  %51 = sext i32 %50 to i64
  %52 = getelementptr inbounds [100 x [100 x i32]], [100 x [100 x i32]]* %6, i64 0, i64 %51
  %53 = load i32, i32* %8, align 4
  %54 = sext i32 %53 to i64
  %55 = getelementptr inbounds [100 x i32], [100 x i32]* %52, i64 0, i64 %54
  %56 = load i32, i32* %55, align 4
  %57 = icmp eq i32 %56, 0
  br i1 %57, label %58, label %61

58:                                               ; preds = %49
  %59 = load i32, i32* %7, align 4
  store i32 %59, i32* %9, align 4
  %60 = load i32, i32* %8, align 4
  store i32 %60, i32* %10, align 4
  br label %65

61:                                               ; preds = %49
  br label %62

62:                                               ; preds = %61
  %63 = load i32, i32* %8, align 4
  %64 = add nsw i32 %63, 1
  store i32 %64, i32* %8, align 4
  br label %45

65:                                               ; preds = %58, %45
  %66 = load i32, i32* %9, align 4
  %67 = icmp sge i32 %66, 0
  br i1 %67, label %68, label %72

68:                                               ; preds = %65
  %69 = load i32, i32* %10, align 4
  %70 = icmp sge i32 %69, 0
  br i1 %70, label %71, label %72

71:                                               ; preds = %68
  br label %76

72:                                               ; preds = %68, %65
  br label %73

73:                                               ; preds = %72
  %74 = load i32, i32* %7, align 4
  %75 = add nsw i32 %74, 1
  store i32 %75, i32* %7, align 4
  br label %40

76:                                               ; preds = %71, %40
  store i32 0, i32* %7, align 4
  br label %77

77:                                               ; preds = %103, %76
  %78 = load i32, i32* %7, align 4
  %79 = load i32, i32* %13, align 4
  %80 = icmp slt i32 %78, %79
  br i1 %80, label %81, label %106

81:                                               ; preds = %77
  store i32 0, i32* %8, align 4
  br label %82

82:                                               ; preds = %99, %81
  %83 = load i32, i32* %8, align 4
  %84 = load i32, i32* %13, align 4
  %85 = icmp slt i32 %83, %84
  br i1 %85, label %86, label %102

86:                                               ; preds = %82
  %87 = load i32, i32* %7, align 4
  %88 = sext i32 %87 to i64
  %89 = getelementptr inbounds [100 x [100 x i32]], [100 x [100 x i32]]* %6, i64 0, i64 %88
  %90 = load i32, i32* %8, align 4
  %91 = sext i32 %90 to i64
  %92 = getelementptr inbounds [100 x i32], [100 x i32]* %89, i64 0, i64 %91
  %93 = load i32, i32* %92, align 4
  %94 = icmp eq i32 %93, 0
  br i1 %94, label %95, label %98

95:                                               ; preds = %86
  %96 = load i32, i32* %7, align 4
  store i32 %96, i32* %11, align 4
  %97 = load i32, i32* %8, align 4
  store i32 %97, i32* %12, align 4
  br label %98

98:                                               ; preds = %95, %86
  br label %99

99:                                               ; preds = %98
  %100 = load i32, i32* %8, align 4
  %101 = add nsw i32 %100, 1
  store i32 %101, i32* %8, align 4
  br label %82

102:                                              ; preds = %82
  br label %103

103:                                              ; preds = %102
  %104 = load i32, i32* %7, align 4
  %105 = add nsw i32 %104, 1
  store i32 %105, i32* %7, align 4
  br label %77

106:                                              ; preds = %77
  %107 = load i32, i32* %11, align 4
  %108 = load i32, i32* %9, align 4
  %109 = sub nsw i32 %107, %108
  %110 = sub nsw i32 %109, 1
  %111 = load i32, i32* %12, align 4
  %112 = load i32, i32* %10, align 4
  %113 = sub nsw i32 %111, %112
  %114 = sub nsw i32 %113, 1
  %115 = mul nsw i32 %110, %114
  store i32 %115, i32* %13, align 4
  %116 = load i32, i32* %13, align 4
  %117 = call i32 (i8*, ...) @printf(i8* getelementptr inbounds ([4 x i8], [4 x i8]* @.str.1, i64 0, i64 0), i32 %116)
  ret i32 0
}

declare dso_local i32 @__isoc99_scanf(i8*, ...) #1

declare dso_local i32 @printf(i8*, ...) #1


!llvm.module.flags = !{!0}
!llvm.ident = !{!1}

!0 = !{i32 1, !"wchar_size", i32 4}
!1 = !{!"clang version 10.0.0-4ubuntu1 "}
